target datalayout = "e-m:e-p270:32:32-p271:32:32-p272:64:64-i64:64-i128:128-f80:128-n8:16:32:64-S128"
target triple = "x86_64-unknown-linux-gnu"

%struct.QemuMutex = type { %union.pthread_mutex_t, i8 }
%union.pthread_mutex_t = type { %struct.__pthread_mutex_s }
%struct.__pthread_mutex_s = type { i32, i32, i32, i32, i32, i16, i16, %struct.__pthread_internal_list }
%struct.__pthread_internal_list = type { ptr, ptr }
%struct.RAMState = type { [2 x %struct.PageSearchStatus], i32, i64, ptr, i64, i32, i32, i64, i64, i64, i64, i64, i64, i8, i8, i64, i64, i64, %struct.QemuMutex, ptr, %struct.QemuMutex, %struct.anon.5, i32 }
%struct.PageSearchStatus = type { ptr, ptr, ptr, i64, i8, i8, i64, i64 }
%struct.anon.5 = type { ptr, ptr }

@ram_state = internal global ptr null, align 8

; Function Attrs: nounwind sspstrong uwtable
define internal i64 @qemu_clock_get_ms(i32 noundef %type) #0 {
entry:
  %type.addr = alloca i32, align 4
  store i32 %type, ptr %type.addr, align 4
  %0 = load i32, ptr %type.addr, align 4
  %call = call i64 @qemu_clock_get_ns(i32 noundef %0)
  %div = sdiv i64 %call, 1000000
  ret i64 %div
}

; Function Attrs: nounwind sspstrong uwtable
define dso_local void @mig_throttle_counter_reset() #0 {
entry:
  %rs = alloca ptr, align 8
  %0 = load ptr, ptr @ram_state, align 8
  store ptr %0, ptr %rs, align 8
  %call = call i64 @qemu_clock_get_ms(i32 noundef 0)
  %1 = load ptr, ptr %rs, align 8
  %time_last_bitmap_sync = getelementptr inbounds %struct.RAMState, ptr %1, i32 0, i32 7
  store i64 %call, ptr %time_last_bitmap_sync, align 8
  %2 = load ptr, ptr %rs, align 8
  %num_dirty_pages_period = getelementptr inbounds %struct.RAMState, ptr %2, i32 0, i32 9
  store i64 0, ptr %num_dirty_pages_period, align 8
  %call1 = call i64 @migration_transferred_bytes()
  %3 = load ptr, ptr %rs, align 8
  %bytes_xfer_prev = getelementptr inbounds %struct.RAMState, ptr %3, i32 0, i32 8
  store i64 %call1, ptr %bytes_xfer_prev, align 8
  ret void
}