; Function Attrs: nounwind sspstrong uwtable
define dso_local void @mig_throttle_counter_reset() local_unnamed_addr #0 {
entry:
  %0 = load ptr, ptr @ram_state, align 8
  %call.i = tail call i64 @qemu_clock_get_ns(i32 noundef 0) #18
  %div.i = sdiv i64 %call.i, 1000000
  %time_last_bitmap_sync = getelementptr inbounds nuw i8, ptr %0, i64 152
  store i64 %div.i, ptr %time_last_bitmap_sync, align 8
  %num_dirty_pages_period = getelementptr inbounds nuw i8, ptr %0, i64 168
  store i64 0, ptr %num_dirty_pages_period, align 8
  %call1 = tail call i64 @migration_transferred_bytes() #18
  %bytes_xfer_prev = getelementptr inbounds nuw i8, ptr %0, i64 160
  store i64 %call1, ptr %bytes_xfer_prev, align 8
  ret void
}